target datalayout = "e-m:e-p270:32:32-p271:32:32-p272:64:64-i64:64-i128:128-f80:128-n8:16:32:64-S128"
target triple = "x86_64-pc-linux-gnu"

%struct.tok_state = type { ptr, ptr, ptr, i32, ptr, ptr, ptr, ptr, i32, ptr, i32, i32, [100 x i32], i32, i32, ptr, ptr, i32, i32, i32, i32, i32, [200 x i8], [200 x i32], [200 x i32], ptr, [100 x i32], i32, i32, ptr, i32, ptr, ptr, ptr, ptr, ptr, ptr, ptr, ptr, i32, i32, ptr, i32, [150 x %struct._tokenizer_mode], i32, i32, i32, i32 }
%struct._tokenizer_mode = type { i32, i32, i32, i8, i32, i32, ptr, ptr, i32, i64, i64, i64, i64, ptr, i32, i32 }
%struct._object = type { %union.anon, ptr }
%union.anon = type { i64 }
%struct.anon = type { i32, i32 }

@.str = private unnamed_addr constant [134 x i8] c"\22\\%c\22 is an invalid escape sequence. Such sequences will not work in the future. Did you mean \22\\\\%c\22? A raw string is also an option.\00", align 1
@PyExc_SyntaxWarning = external global ptr, align 8
@.str.1 = private unnamed_addr constant [90 x i8] c"\22\\%c\22 is an invalid escape sequence. Did you mean \22\\\\%c\22? A raw string is also an option.\00", align 1

; Function Attrs: alwaysinline nounwind uwtable
define internal i32 @_Py_IsImmortal(ptr noundef %0) #4 {
  %2 = alloca ptr, align 8
  store ptr %0, ptr %2, align 8, !tbaa !19
  %3 = load ptr, ptr %2, align 8, !tbaa !19
  %4 = getelementptr inbounds nuw %struct._object, ptr %3, i32 0, i32 0
  %5 = getelementptr inbounds nuw %struct.anon, ptr %4, i32 0, i32 0
  %6 = load i32, ptr %5, align 8, !tbaa !34
  %7 = icmp slt i32 %6, 0
  %8 = zext i1 %7 to i32
  ret i32 %8
}

; Function Attrs: alwaysinline nounwind uwtable
define internal void @Py_DECREF(ptr noundef %0) #4 {
  %2 = alloca ptr, align 8
  store ptr %0, ptr %2, align 8, !tbaa !19
  %3 = load ptr, ptr %2, align 8, !tbaa !19
  %4 = call i32 @_Py_IsImmortal(ptr noundef %3)
  %5 = icmp ne i32 %4, 0
  br i1 %5, label %6, label %7

6:                                                ; preds = %1
  br label %16

7:                                                ; preds = %1
  %8 = load ptr, ptr %2, align 8, !tbaa !19
  %9 = getelementptr inbounds nuw %struct._object, ptr %8, i32 0, i32 0
  %10 = getelementptr inbounds nuw %struct.anon, ptr %9, i32 0, i32 0
  %11 = load i32, ptr %10, align 8, !tbaa !34
  %12 = add i32 %11, -1
  store i32 %12, ptr %10, align 8, !tbaa !34
  %13 = icmp eq i32 %12, 0
  br i1 %13, label %14, label %16

14:                                               ; preds = %7
  %15 = load ptr, ptr %2, align 8, !tbaa !19
  call void @_Py_Dealloc(ptr noundef %15)
  br label %16

16:                                               ; preds = %6, %14, %7
  ret void
}

; Function Attrs: nounwind uwtable
define hidden i32 @_PyTokenizer_warn_invalid_escape_sequence(ptr noundef %0, i32 noundef %1) #0 {
  %3 = alloca i32, align 4
  %4 = alloca ptr, align 8
  %5 = alloca i32, align 4
  %6 = alloca ptr, align 8
  %7 = alloca i32, align 4
  store ptr %0, ptr %4, align 8, !tbaa !4
  store i32 %1, ptr %5, align 4, !tbaa !11
  %8 = load ptr, ptr %4, align 8, !tbaa !4
  %9 = getelementptr inbounds nuw %struct.tok_state, ptr %8, i32 0, i32 42
  %10 = load i32, ptr %9, align 8, !tbaa !33
  %11 = icmp ne i32 %10, 0
  br i1 %11, label %13, label %12

12:                                               ; preds = %2
  store i32 0, ptr %3, align 4
  br label %53

13:                                               ; preds = %2
  call void @llvm.lifetime.start.p0(i64 8, ptr %6) #8
  %14 = load i32, ptr %5, align 4, !tbaa !11
  %15 = trunc i32 %14 to i8
  %16 = sext i8 %15 to i32
  %17 = load i32, ptr %5, align 4, !tbaa !11
  %18 = trunc i32 %17 to i8
  %19 = sext i8 %18 to i32
  %20 = call ptr (ptr, ...) @PyUnicode_FromFormat(ptr noundef @.str, i32 noundef %16, i32 noundef %19)
  store ptr %20, ptr %6, align 8, !tbaa !19
  %21 = load ptr, ptr %6, align 8, !tbaa !19
  %22 = icmp eq ptr %21, null
  br i1 %22, label %23, label %24

23:                                               ; preds = %13
  store i32 -1, ptr %3, align 4
  store i32 1, ptr %7, align 4
  br label %52

24:                                               ; preds = %13
  %25 = load ptr, ptr @PyExc_SyntaxWarning, align 8, !tbaa !19
  %26 = load ptr, ptr %6, align 8, !tbaa !19
  %27 = load ptr, ptr %4, align 8, !tbaa !4
  %28 = getelementptr inbounds nuw %struct.tok_state, ptr %27, i32 0, i32 25
  %29 = load ptr, ptr %28, align 8, !tbaa !24
  %30 = load ptr, ptr %4, align 8, !tbaa !4
  %31 = getelementptr inbounds nuw %struct.tok_state, ptr %30, i32 0, i32 17
  %32 = load i32, ptr %31, align 8, !tbaa !25
  %33 = call i32 @PyErr_WarnExplicitObject(ptr noundef %25, ptr noundef %26, ptr noundef %29, i32 noundef %32, ptr noundef null, ptr noundef null)
  %34 = icmp slt i32 %33, 0
  br i1 %34, label %35, label %50

35:                                               ; preds = %24
  %36 = load ptr, ptr %6, align 8, !tbaa !19
  call void @Py_DECREF(ptr noundef %36)
  %37 = load ptr, ptr @PyExc_SyntaxWarning, align 8, !tbaa !19
  %38 = call i32 @PyErr_ExceptionMatches(ptr noundef %37)
  %39 = icmp ne i32 %38, 0
  br i1 %39, label %40, label %49

40:                                               ; preds = %35
  call void @PyErr_Clear()
  %41 = load ptr, ptr %4, align 8, !tbaa !4
  %42 = load i32, ptr %5, align 4, !tbaa !11
  %43 = trunc i32 %42 to i8
  %44 = sext i8 %43 to i32
  %45 = load i32, ptr %5, align 4, !tbaa !11
  %46 = trunc i32 %45 to i8
  %47 = sext i8 %46 to i32
  %48 = call i32 (ptr, ptr, ...) @_PyTokenizer_syntaxerror(ptr noundef %41, ptr noundef @.str.1, i32 noundef %44, i32 noundef %47)
  store i32 %48, ptr %3, align 4
  store i32 1, ptr %7, align 4
  br label %52

49:                                               ; preds = %35
  store i32 -1, ptr %3, align 4
  store i32 1, ptr %7, align 4
  br label %52

50:                                               ; preds = %24
  %51 = load ptr, ptr %6, align 8, !tbaa !19
  call void @Py_DECREF(ptr noundef %51)
  store i32 0, ptr %3, align 4
  store i32 1, ptr %7, align 4
  br label %52

52:                                               ; preds = %50, %49, %40, %23
  call void @llvm.lifetime.end.p0(i64 8, ptr %6) #8
  br label %53

53:                                               ; preds = %52, %12
  %54 = load i32, ptr %3, align 4
  ret i32 %54
}