; Function Attrs: nounwind uwtable
define hidden range(i32 -1, 65) i32 @_PyTokenizer_warn_invalid_escape_sequence(ptr noundef captures(none) %0, i32 noundef %1) local_unnamed_addr #0 {
  %3 = getelementptr inbounds nuw i8, ptr %0, i64 2848
  %4 = load i32, ptr %3, align 8, !tbaa !31
  %.not = icmp eq i32 %4, 0
  br i1 %.not, label %Py_DECREF.exit15, label %5

5:                                                ; preds = %2
  %sext = shl i32 %1, 24
  %6 = ashr exact i32 %sext, 24
  %7 = tail call ptr (ptr, ...) @PyUnicode_FromFormat(ptr noundef nonnull @.str, i32 noundef %6, i32 noundef %6) #9
  %8 = icmp eq ptr %7, null
  br i1 %8, label %Py_DECREF.exit15, label %9

9:                                                ; preds = %5
  %10 = load ptr, ptr @PyExc_SyntaxWarning, align 8, !tbaa !25
  %11 = getelementptr inbounds nuw i8, ptr %0, i64 2336
  %12 = load ptr, ptr %11, align 8, !tbaa !23
  %13 = getelementptr inbounds nuw i8, ptr %0, i64 512
  %14 = load i32, ptr %13, align 8, !tbaa !24
  %15 = tail call i32 @PyErr_WarnExplicitObject(ptr noundef %10, ptr noundef nonnull %7, ptr noundef %12, i32 noundef %14, ptr noundef null, ptr noundef null) #9
  %16 = icmp slt i32 %15, 0
  %17 = load i32, ptr %7, align 8, !tbaa !22
  %.not.i = icmp sgt i32 %17, -1
  br i1 %16, label %18, label %27

18:                                               ; preds = %9
  br i1 %.not.i, label %19, label %Py_DECREF.exit

19:                                               ; preds = %18
  %20 = add nsw i32 %17, -1
  store i32 %20, ptr %7, align 8, !tbaa !22
  %21 = icmp eq i32 %20, 0
  br i1 %21, label %22, label %Py_DECREF.exit

22:                                               ; preds = %19
  tail call void @_Py_Dealloc(ptr noundef nonnull %7) #9
  br label %Py_DECREF.exit

Py_DECREF.exit:                                   ; preds = %18, %19, %22
  %23 = load ptr, ptr @PyExc_SyntaxWarning, align 8, !tbaa !25
  %24 = tail call i32 @PyErr_ExceptionMatches(ptr noundef %23) #9
  %.not13 = icmp eq i32 %24, 0
  br i1 %.not13, label %Py_DECREF.exit15, label %25

25:                                               ; preds = %Py_DECREF.exit
  tail call void @PyErr_Clear() #9
  %26 = tail call i32 (ptr, ptr, ...) @_PyTokenizer_syntaxerror(ptr noundef nonnull %0, ptr noundef nonnull @.str.1, i32 noundef %6, i32 noundef %6)
  br label %Py_DECREF.exit15

27:                                               ; preds = %9
  br i1 %.not.i, label %28, label %Py_DECREF.exit15

28:                                               ; preds = %27
  %29 = add nsw i32 %17, -1
  store i32 %29, ptr %7, align 8, !tbaa !22
  %30 = icmp eq i32 %29, 0
  br i1 %30, label %31, label %Py_DECREF.exit15

31:                                               ; preds = %28
  tail call void @_Py_Dealloc(ptr noundef nonnull %7) #9
  br label %Py_DECREF.exit15

Py_DECREF.exit15:                                 ; preds = %31, %28, %27, %25, %5, %Py_DECREF.exit, %2
  %.0 = phi i32 [ 0, %2 ], [ 64, %25 ], [ -1, %5 ], [ -1, %Py_DECREF.exit ], [ 0, %27 ], [ 0, %28 ], [ 0, %31 ]
  ret i32 %.0
}